target datalayout = "e-m:e-p270:32:32-p271:32:32-p272:64:64-i64:64-i128:128-f80:128-n8:16:32:64-S128"
target triple = "x86_64-pc-linux-gnu"

%"struct.vcpkg::Version" = type <{ %"class.std::__cxx11::basic_string", i32, [4 x i8] }>
%"class.std::__cxx11::basic_string" = type { %"struct.std::__cxx11::basic_string<char>::_Alloc_hider", i64, %union.anon }
%"struct.std::__cxx11::basic_string<char>::_Alloc_hider" = type { ptr }
%union.anon = type { i64, [8 x i8] }
%"class.fmt::v10::basic_string_view" = type { ptr, i64 }
%"class.fmt::v10::basic_format_args" = type { i64, %union.anon.30 }
%union.anon.30 = type { ptr }
%"class.fmt::v10::detail::value" = type { %union.anon.31 }
%union.anon.31 = type { i128 }
%"struct.fmt::v10::detail::arg_data.33" = type { [2 x %"class.fmt::v10::detail::value"] }
%"class.fmt::v10::basic_format_string.5" = type { %"class.fmt::v10::basic_string_view" }
%"class.fmt::v10::format_arg_store.43" = type { %"struct.fmt::v10::detail::arg_data.33" }
%"struct.vcpkg::VersionSpec" = type { %"class.std::__cxx11::basic_string", %"struct.vcpkg::Version" }
%"struct.fmt::v10::detail::arg_mapper" = type { i8 }
%"struct.fmt::v10::detail::custom_value" = type { ptr, ptr }
%"struct.fmt::v10::detail::string_value" = type { ptr, i64 }

@.str.2 = private unnamed_addr constant [6 x i8] c"{}@{}\00", align 1

; Function Attrs: mustprogress nounwind uwtable
define linkonce_odr dso_local void @_ZN3fmt3v1017basic_string_viewIcEC2ISt11char_traitsIcESaIcEEERKNSt7__cxx1112basic_stringIcT_T0_EE(ptr noundef nonnull align 8 dereferenceable(16) %0, ptr noundef nonnull align 8 dereferenceable(32) %1) unnamed_addr #0 comdat align 2 {
  %3 = alloca ptr, align 8
  %4 = alloca ptr, align 8
  store ptr %0, ptr %3, align 8
  store ptr %1, ptr %4, align 8
  %5 = load ptr, ptr %3, align 8
  %6 = getelementptr inbounds %"class.fmt::v10::basic_string_view", ptr %5, i32 0, i32 0
  %7 = load ptr, ptr %4, align 8
  %8 = call noundef ptr @_ZNKSt7__cxx1112basic_stringIcSt11char_traitsIcESaIcEE4dataEv(ptr noundef nonnull align 8 dereferenceable(32) %7) #13
  store ptr %8, ptr %6, align 8
  %9 = getelementptr inbounds %"class.fmt::v10::basic_string_view", ptr %5, i32 0, i32 1
  %10 = load ptr, ptr %4, align 8
  %11 = call noundef i64 @_ZNKSt7__cxx1112basic_stringIcSt11char_traitsIcESaIcEE4sizeEv(ptr noundef nonnull align 8 dereferenceable(32) %10) #13
  store i64 %11, ptr %9, align 8
  ret void
}

; Function Attrs: mustprogress nounwind uwtable
define linkonce_odr dso_local noundef i64 @_ZNK3fmt3v1017basic_string_viewIcE4sizeEv(ptr noundef nonnull align 8 dereferenceable(16) %0) #0 comdat align 2 {
  %2 = alloca ptr, align 8
  store ptr %0, ptr %2, align 8
  %3 = load ptr, ptr %2, align 8
  %4 = getelementptr inbounds %"class.fmt::v10::basic_string_view", ptr %3, i32 0, i32 1
  %5 = load i64, ptr %4, align 8
  ret i64 %5
}

; Function Attrs: mustprogress nounwind uwtable
define linkonce_odr dso_local noundef ptr @_ZNK3fmt3v1017basic_string_viewIcE4dataEv(ptr noundef nonnull align 8 dereferenceable(16) %0) #0 comdat align 2 {
  %2 = alloca ptr, align 8
  store ptr %0, ptr %2, align 8
  %3 = load ptr, ptr %2, align 8
  %4 = getelementptr inbounds %"class.fmt::v10::basic_string_view", ptr %3, i32 0, i32 0
  %5 = load ptr, ptr %4, align 8
  ret ptr %5
}

; Function Attrs: mustprogress nounwind uwtable
define linkonce_odr dso_local { ptr, i64 } @_ZN3fmt3v106detail14to_string_viewIcSt11char_traitsIcESaIcEEENS0_17basic_string_viewIT_EERKNSt7__cxx1112basic_stringIS7_T0_T1_EE(ptr noundef nonnull align 8 dereferenceable(32) %0) #0 comdat {
  %2 = alloca %"class.fmt::v10::basic_string_view", align 8
  %3 = alloca ptr, align 8
  store ptr %0, ptr %3, align 8
  %4 = load ptr, ptr %3, align 8
  call void @_ZN3fmt3v1017basic_string_viewIcEC2ISt11char_traitsIcESaIcEEERKNSt7__cxx1112basic_stringIcT_T0_EE(ptr noundef nonnull align 8 dereferenceable(16) %2, ptr noundef nonnull align 8 dereferenceable(32) %4) #13
  %5 = load { ptr, i64 }, ptr %2, align 8
  ret { ptr, i64 } %5
}

; Function Attrs: mustprogress uwtable
define linkonce_odr dso_local void @_ZN3fmt3v1016make_format_argsINS0_20basic_format_contextINS0_8appenderEcEEJKNSt7__cxx1112basic_stringIcSt11char_traitsIcESaIcEEEKN5vcpkg7VersionEEEENS0_16format_arg_storeIT_JDpNSt9remove_cvINSt16remove_referenceIT0_E4typeEE4typeEEEEDpRSJ_(ptr dead_on_unwind noalias writable sret(%"class.fmt::v10::format_arg_store.43") align 16 %0, ptr noundef nonnull align 8 dereferenceable(32) %1, ptr noundef nonnull align 8 dereferenceable(36) %2) #2 comdat {
  %4 = alloca %"class.fmt::v10::basic_string_view", align 8
  %5 = alloca ptr, align 8
  %6 = alloca %"class.fmt::v10::basic_string_view", align 8
  %7 = alloca ptr, align 8
  %8 = alloca ptr, align 8
  %9 = alloca %"class.fmt::v10::detail::value", align 16
  %10 = alloca ptr, align 8
  %11 = alloca i8, align 1
  %12 = alloca i8, align 1
  %13 = alloca i8, align 1
  %14 = alloca %"class.fmt::v10::basic_string_view", align 8
  %15 = alloca %"struct.fmt::v10::detail::arg_mapper", align 1
  %16 = alloca ptr, align 8
  %17 = alloca ptr, align 8
  %18 = alloca ptr, align 8
  %19 = alloca ptr, align 8
  %20 = alloca ptr, align 8
  %21 = alloca ptr, align 8
  %22 = alloca ptr, align 8
  %23 = alloca ptr, align 8
  %24 = alloca ptr, align 8
  %25 = alloca %"class.fmt::v10::detail::value", align 16
  %26 = alloca ptr, align 8
  %27 = alloca i8, align 1
  %28 = alloca i8, align 1
  %29 = alloca i8, align 1
  %30 = alloca %"struct.fmt::v10::detail::arg_mapper", align 1
  %31 = alloca ptr, align 8
  %32 = alloca ptr, align 8
  %33 = alloca ptr, align 8
  %34 = alloca %"class.fmt::v10::detail::value", align 16
  %35 = alloca %"class.fmt::v10::detail::value", align 16
  %36 = alloca ptr, align 8
  %37 = alloca ptr, align 8
  store ptr %1, ptr %36, align 8
  store ptr %2, ptr %37, align 8
  %38 = load ptr, ptr %36, align 8
  %39 = load ptr, ptr %37, align 8
  store ptr %0, ptr %31, align 8
  store ptr %38, ptr %32, align 8
  store ptr %39, ptr %33, align 8
  %40 = load ptr, ptr %31, align 8
  %41 = load ptr, ptr %32, align 8
  store ptr %41, ptr %10, align 8
  store i8 1, ptr %11, align 1
  store i8 1, ptr %12, align 1
  store i8 1, ptr %13, align 1
  %42 = load ptr, ptr %10, align 8
  store ptr %15, ptr %7, align 8
  store ptr %42, ptr %8, align 8
  %43 = load ptr, ptr %8, align 8
  %44 = call { ptr, i64 } @_ZN3fmt3v106detail14to_string_viewIcSt11char_traitsIcESaIcEEENS0_17basic_string_viewIT_EERKNSt7__cxx1112basic_stringIS7_T0_T1_EE(ptr noundef nonnull align 8 dereferenceable(32) %43)
  %45 = extractvalue { ptr, i64 } %44, 0
  store ptr %45, ptr %6, align 8
  %46 = getelementptr inbounds { ptr, i64 }, ptr %6, i32 0, i32 1
  %47 = extractvalue { ptr, i64 } %44, 1
  store i64 %47, ptr %46, align 8
  %48 = load { ptr, i64 }, ptr %6, align 8
  %49 = extractvalue { ptr, i64 } %48, 0
  store ptr %49, ptr %14, align 8
  %50 = getelementptr inbounds { ptr, i64 }, ptr %14, i32 0, i32 1
  %51 = extractvalue { ptr, i64 } %48, 1
  store i64 %51, ptr %50, align 8
  %52 = load ptr, ptr %14, align 8
  %53 = getelementptr inbounds { ptr, i64 }, ptr %14, i32 0, i32 1
  %54 = load i64, ptr %53, align 8
  store ptr %52, ptr %4, align 8
  %55 = getelementptr inbounds { ptr, i64 }, ptr %4, i32 0, i32 1
  store i64 %54, ptr %55, align 8
  store ptr %9, ptr %5, align 8
  %56 = load ptr, ptr %5, align 8
  %57 = call noundef ptr @_ZNK3fmt3v1017basic_string_viewIcE4dataEv(ptr noundef nonnull align 8 dereferenceable(16) %4) #13
  store ptr %57, ptr %56, align 16
  %58 = call noundef i64 @_ZNK3fmt3v1017basic_string_viewIcE4sizeEv(ptr noundef nonnull align 8 dereferenceable(16) %4) #13
  %59 = getelementptr inbounds %"struct.fmt::v10::detail::string_value", ptr %56, i32 0, i32 1
  store i64 %58, ptr %59, align 8
  %60 = load { i64, i64 }, ptr %9, align 16
  %61 = extractvalue { i64, i64 } %60, 0
  store i64 %61, ptr %34, align 16
  %62 = getelementptr inbounds { i64, i64 }, ptr %34, i32 0, i32 1
  %63 = extractvalue { i64, i64 } %60, 1
  store i64 %63, ptr %62, align 8
  %64 = load ptr, ptr %33, align 8
  store ptr %64, ptr %26, align 8
  store i8 1, ptr %27, align 1
  store i8 1, ptr %28, align 1
  store i8 1, ptr %29, align 1
  %65 = load ptr, ptr %26, align 8
  store ptr %30, ptr %20, align 8
  store ptr %65, ptr %21, align 8
  %66 = load ptr, ptr %20, align 8
  %67 = load ptr, ptr %21, align 8
  store ptr %66, ptr %16, align 8
  store ptr %67, ptr %17, align 8
  %68 = load ptr, ptr %17, align 8
  store ptr %25, ptr %18, align 8
  store ptr %68, ptr %19, align 8
  %69 = load ptr, ptr %18, align 8
  %70 = load ptr, ptr %19, align 8
  store ptr %70, ptr %69, align 16
  %71 = getelementptr inbounds %"struct.fmt::v10::detail::custom_value", ptr %69, i32 0, i32 1
  store ptr @_ZN3fmt3v106detail5valueINS0_20basic_format_contextINS0_8appenderEcEEE17format_custom_argIN5vcpkg7VersionENS0_9formatterIS9_cvEEEEvPvRNS0_26basic_format_parse_contextIcEERS5_, ptr %71, align 8
  %72 = load { i64, i64 }, ptr %25, align 16
  %73 = extractvalue { i64, i64 } %72, 0
  store i64 %73, ptr %35, align 16
  %74 = getelementptr inbounds { i64, i64 }, ptr %35, i32 0, i32 1
  %75 = extractvalue { i64, i64 } %72, 1
  store i64 %75, ptr %74, align 8
  store ptr %40, ptr %22, align 8
  store ptr %34, ptr %23, align 8
  store ptr %35, ptr %24, align 8
  %76 = load ptr, ptr %22, align 8
  %77 = load ptr, ptr %23, align 8
  call void @llvm.memcpy.p0.p0.i64(ptr align 16 %76, ptr align 16 %77, i64 16, i1 false)
  %78 = getelementptr inbounds %"class.fmt::v10::detail::value", ptr %76, i64 1
  %79 = load ptr, ptr %24, align 8
  call void @llvm.memcpy.p0.p0.i64(ptr align 16 %78, ptr align 16 %79, i64 16, i1 false)
  ret void
}

; Function Attrs: mustprogress nounwind uwtable
define linkonce_odr dso_local noundef i64 @_ZNSt11char_traitsIcE6lengthEPKc(ptr noundef %0) #0 comdat align 2 {
  %2 = alloca ptr, align 8
  store ptr %0, ptr %2, align 8
  %3 = load ptr, ptr %2, align 8
  %4 = call i64 @strlen(ptr noundef %3) #13
  ret i64 %4
}

; Function Attrs: mustprogress uwtable
define dso_local void @_ZNK5vcpkg11VersionSpec9to_stringB5cxx11Ev(ptr dead_on_unwind noalias writable sret(%"class.std::__cxx11::basic_string") align 8 %0, ptr noundef nonnull align 8 dereferenceable(72) %1) #2 align 2 {
  %3 = alloca ptr, align 8
  %4 = alloca ptr, align 8
  %5 = alloca ptr, align 8
  %6 = alloca i64, align 8
  %7 = alloca ptr, align 8
  %8 = alloca ptr, align 8
  %9 = alloca ptr, align 8
  %10 = alloca %"class.fmt::v10::basic_string_view", align 8
  %11 = alloca ptr, align 8
  %12 = alloca ptr, align 8
  %13 = alloca ptr, align 8
  %14 = alloca ptr, align 8
  %15 = alloca ptr, align 8
  %16 = alloca ptr, align 8
  %17 = alloca %"class.fmt::v10::basic_format_string.5", align 8
  %18 = alloca ptr, align 8
  %19 = alloca ptr, align 8
  %20 = alloca %"class.fmt::v10::basic_string_view", align 8
  %21 = alloca %"class.fmt::v10::basic_format_args", align 8
  %22 = alloca %"class.fmt::v10::format_arg_store.43", align 16
  %23 = alloca ptr, align 8
  %24 = alloca ptr, align 8
  %25 = alloca %"class.fmt::v10::basic_format_string.5", align 8
  store ptr %0, ptr %23, align 8
  store ptr %1, ptr %24, align 8
  %26 = load ptr, ptr %24, align 8
  store ptr %25, ptr %14, align 8
  store ptr @.str.2, ptr %15, align 8
  %27 = load ptr, ptr %14, align 8
  %28 = load ptr, ptr %15, align 8
  store ptr %27, ptr %12, align 8
  store ptr %28, ptr %13, align 8
  %29 = load ptr, ptr %12, align 8
  %30 = load ptr, ptr %13, align 8
  store ptr %30, ptr %29, align 8
  %31 = getelementptr inbounds %"class.fmt::v10::basic_string_view", ptr %29, i32 0, i32 1
  %32 = load ptr, ptr %13, align 8
  %33 = call noundef i64 @_ZNSt11char_traitsIcE6lengthEPKc(ptr noundef %32)
  store i64 %33, ptr %31, align 8
  %34 = load ptr, ptr %15, align 8
  store ptr %34, ptr %3, align 8
  %35 = getelementptr inbounds %"struct.vcpkg::VersionSpec", ptr %26, i32 0, i32 0
  %36 = getelementptr inbounds %"struct.vcpkg::VersionSpec", ptr %26, i32 0, i32 1
  %37 = getelementptr inbounds { ptr, i64 }, ptr %25, i32 0, i32 0
  %38 = load ptr, ptr %37, align 8
  %39 = getelementptr inbounds { ptr, i64 }, ptr %25, i32 0, i32 1
  %40 = load i64, ptr %39, align 8
  call void @llvm.experimental.noalias.scope.decl(metadata !8)
  store ptr %0, ptr %16, align 8, !noalias !8
  store ptr %38, ptr %17, align 8, !noalias !8
  %41 = getelementptr inbounds { ptr, i64 }, ptr %17, i32 0, i32 1
  store i64 %40, ptr %41, align 8, !noalias !8
  store ptr %35, ptr %18, align 8, !noalias !8
  store ptr %36, ptr %19, align 8, !noalias !8
  store ptr %17, ptr %11, align 8
  %42 = load ptr, ptr %11, align 8
  call void @llvm.memcpy.p0.p0.i64(ptr align 8 %10, ptr align 8 %42, i64 16, i1 false)
  %43 = load { ptr, i64 }, ptr %10, align 8
  %44 = extractvalue { ptr, i64 } %43, 0
  store ptr %44, ptr %20, align 8, !noalias !8
  %45 = getelementptr inbounds { ptr, i64 }, ptr %20, i32 0, i32 1
  %46 = extractvalue { ptr, i64 } %43, 1
  store i64 %46, ptr %45, align 8, !noalias !8
  %47 = load ptr, ptr %18, align 8, !noalias !8
  %48 = load ptr, ptr %19, align 8, !noalias !8
  call void @_ZN3fmt3v1016make_format_argsINS0_20basic_format_contextINS0_8appenderEcEEJKNSt7__cxx1112basic_stringIcSt11char_traitsIcESaIcEEEKN5vcpkg7VersionEEEENS0_16format_arg_storeIT_JDpNSt9remove_cvINSt16remove_referenceIT0_E4typeEE4typeEEEEDpRSJ_(ptr dead_on_unwind writable sret(%"class.fmt::v10::format_arg_store.43") align 16 %22, ptr noundef nonnull align 8 dereferenceable(32) %47, ptr noundef nonnull align 8 dereferenceable(36) %48)
  store ptr %21, ptr %8, align 8
  store ptr %22, ptr %9, align 8
  %49 = load ptr, ptr %8, align 8
  %50 = load ptr, ptr %9, align 8
  store ptr %50, ptr %4, align 8
  %51 = load ptr, ptr %4, align 8
  store ptr %49, ptr %5, align 8
  store i64 253, ptr %6, align 8
  store ptr %51, ptr %7, align 8
  %52 = load ptr, ptr %5, align 8
  %53 = load i64, ptr %6, align 8
  store i64 %53, ptr %52, align 8
  %54 = getelementptr inbounds %"class.fmt::v10::basic_format_args", ptr %52, i32 0, i32 1
  %55 = load ptr, ptr %7, align 8
  store ptr %55, ptr %54, align 8
  %56 = load ptr, ptr %20, align 8, !noalias !8
  %57 = getelementptr inbounds { ptr, i64 }, ptr %20, i32 0, i32 1
  %58 = load i64, ptr %57, align 8, !noalias !8
  %59 = load i64, ptr %21, align 8, !noalias !8
  %60 = getelementptr inbounds { i64, ptr }, ptr %21, i32 0, i32 1
  %61 = load ptr, ptr %60, align 8, !noalias !8
  call void @_ZN3fmt3v107vformatB5cxx11ENS0_17basic_string_viewIcEENS0_17basic_format_argsINS0_20basic_format_contextINS0_8appenderEcEEEE(ptr dead_on_unwind writable sret(%"class.std::__cxx11::basic_string") align 8 %0, ptr %56, i64 %58, i64 %59, ptr %61)
  ret void
}